(lp0
S'Machine'
p1
aS'SizeOfOptionalHeader'
p2
aS'Characteristics'
p3
aS'ImageBase'
p4
aS'MajorSubsystemVersion'
p5
aS'Subsystem'
p6
aS'DllCharacteristics'
p7
aS'SectionsNb'
p8
aS'SectionsMaxEntropy'
p9
aS'ResourcesMaxEntropy'
p10
aS'VersionInformationSize'
p11
a.